; Function Attrs: mustprogress uwtable
define noundef ptr @_ZN9grpc_core8internal17RetryGlobalConfig10JsonLoaderERKNS_8JsonArgsE(ptr noundef nonnull readnone align 8 captures(none) dereferenceable(8) %0) local_unnamed_addr #3 align 2 personality ptr @__gxx_personality_v0 {
  %2 = load atomic i8, ptr @_ZGVZN9grpc_core8internal17RetryGlobalConfig10JsonLoaderERKNS_8JsonArgsEE6loader acquire, align 8
  %3 = icmp eq i8 %2, 0
  br i1 %3, label %4, label %9, !prof !3

4:                                                ; preds = %1
  %5 = tail call i32 @__cxa_guard_acquire(ptr nonnull @_ZGVZN9grpc_core8internal17RetryGlobalConfig10JsonLoaderERKNS_8JsonArgsEE6loader) #25
  %.not = icmp eq i32 %5, 0
  br i1 %.not, label %9, label %6

6:                                                ; preds = %4
  %7 = invoke noalias noundef nonnull dereferenceable(8) ptr @_Znwm(i64 noundef 8) #26
          to label %8 unwind label %11

8:                                                ; preds = %6
  store ptr getelementptr inbounds nuw inrange(-16, 8) (i8, ptr @_ZTVN9grpc_core11json_detail24FinishedJsonObjectLoaderINS_8internal17RetryGlobalConfigELm0EvEE, i64 16), ptr %7, align 8, !tbaa !4
  store ptr %7, ptr @_ZZN9grpc_core8internal17RetryGlobalConfig10JsonLoaderERKNS_8JsonArgsEE6loader, align 8, !tbaa !7
  tail call void @__cxa_guard_release(ptr nonnull @_ZGVZN9grpc_core8internal17RetryGlobalConfig10JsonLoaderERKNS_8JsonArgsEE6loader) #25
  br label %9

9:                                                ; preds = %8, %4, %1
  %10 = load ptr, ptr @_ZZN9grpc_core8internal17RetryGlobalConfig10JsonLoaderERKNS_8JsonArgsEE6loader, align 8, !tbaa !7
  ret ptr %10

11:                                               ; preds = %6
  %12 = landingpad { ptr, i32 }
          cleanup
  tail call void @__cxa_guard_abort(ptr nonnull @_ZGVZN9grpc_core8internal17RetryGlobalConfig10JsonLoaderERKNS_8JsonArgsEE6loader) #25
  resume { ptr, i32 } %12
}